#include <math.h>
#include <stdio.h>
#include <stdlib.h>
#include <string.h>
#include <iostream>
using namespace std;

/*
 * zhizheng.cpp
 *?? - ????
 *  Created on: 2012-12-11
 *      Author: ???
 */
int n,N,temp,i;
int *p=NULL,*q=NULL;
int main(){
	cin>>n;
	const int N=n;
	int a[N];
	for(i=0;i<n;i++)
	cin>>a[i];
	for(p=a,q=a+n-1;p<q;p++,q--)
	{
		temp=*p;
		*p=*q;
		*q=temp;
	}
	for(p=a;p<a+n-1;p++)
		cout<<*p<<' ';
	cout<<*p<<endl;
	return 0;
}