; ModuleID = '47/2310.cpp'
source_filename = "47/2310.cpp"
target datalayout = "e-m:e-p270:32:32-p271:32:32-p272:64:64-i64:64-f80:128-n8:16:32:64-S128"
target triple = "x86_64-pc-linux-gnu"

%"class.std::ios_base::Init" = type { i8 }
%"class.std::basic_istream" = type { i32 (...)**, i64, %"class.std::basic_ios" }
%"class.std::basic_ios" = type { %"class.std::ios_base", %"class.std::basic_ostream"*, i8, i8, %"class.std::basic_streambuf"*, %"class.std::ctype"*, %"class.std::num_put"*, %"class.std::num_get"* }
%"class.std::ios_base" = type { i32 (...)**, i64, i64, i32, i32, i32, %"struct.std::ios_base::_Callback_list"*, %"struct.std::ios_base::_Words", [8 x %"struct.std::ios_base::_Words"], i32, %"struct.std::ios_base::_Words"*, %"class.std::locale" }
%"struct.std::ios_base::_Callback_list" = type { %"struct.std::ios_base::_Callback_list"*, void (i32, %"class.std::ios_base"*, i32)*, i32, i32 }
%"struct.std::ios_base::_Words" = type { i8*, i64 }
%"class.std::locale" = type { %"class.std::locale::_Impl"* }
%"class.std::locale::_Impl" = type { i32, %"class.std::locale::facet"**, i64, %"class.std::locale::facet"**, i8** }
%"class.std::locale::facet" = type <{ i32 (...)**, i32, [4 x i8] }>
%"class.std::basic_ostream" = type { i32 (...)**, %"class.std::basic_ios" }
%"class.std::basic_streambuf" = type { i32 (...)**, i8*, i8*, i8*, i8*, i8*, i8*, %"class.std::locale" }
%"class.std::ctype" = type <{ %"class.std::locale::facet.base", [4 x i8], %struct.__locale_struct*, i8, [7 x i8], i32*, i32*, i16*, i8, [256 x i8], [256 x i8], i8, [6 x i8] }>
%"class.std::locale::facet.base" = type <{ i32 (...)**, i32 }>
%struct.__locale_struct = type { [13 x %struct.__locale_data*], i16*, i32*, i32*, [13 x i8*] }
%struct.__locale_data = type opaque
%"class.std::num_put" = type { %"class.std::locale::facet.base", [4 x i8] }
%"class.std::num_get" = type { %"class.std::locale::facet.base", [4 x i8] }

@_ZStL8__ioinit = internal global %"class.std::ios_base::Init" zeroinitializer, align 1
@__dso_handle = external hidden global i8
@n = dso_local global i32 0, align 4
@N = dso_local global i32 0, align 4
@temp = dso_local global i32 0, align 4
@i = dso_local global i32 0, align 4
@p = dso_local global i32* null, align 8
@q = dso_local global i32* null, align 8
@_ZSt3cin = external dso_local global %"class.std::basic_istream", align 8
@_ZSt4cout = external dso_local global %"class.std::basic_ostream", align 8
@llvm.global_ctors = appending global [1 x { i32, void ()*, i8* }] [{ i32, void ()*, i8* } { i32 65535, void ()* @_GLOBAL__sub_I_2310.cpp, i8* null }]

; Function Attrs: noinline uwtable
define internal void @__cxx_global_var_init() #0 section ".text.startup" {
  call void @_ZNSt8ios_base4InitC1Ev(%"class.std::ios_base::Init"* @_ZStL8__ioinit)
  %1 = call i32 @__cxa_atexit(void (i8*)* bitcast (void (%"class.std::ios_base::Init"*)* @_ZNSt8ios_base4InitD1Ev to void (i8*)*), i8* getelementptr inbounds (%"class.std::ios_base::Init", %"class.std::ios_base::Init"* @_ZStL8__ioinit, i32 0, i32 0), i8* @__dso_handle) #3
  ret void
}

declare dso_local void @_ZNSt8ios_base4InitC1Ev(%"class.std::ios_base::Init"*) unnamed_addr #1

; Function Attrs: nounwind
declare dso_local void @_ZNSt8ios_base4InitD1Ev(%"class.std::ios_base::Init"*) unnamed_addr #2

; Function Attrs: nounwind
declare dso_local i32 @__cxa_atexit(void (i8*)*, i8*, i8*) #3

; Function Attrs: noinline norecurse uwtable
define dso_local i32 @main() #4 {
  %1 = alloca i32, align 4
  %2 = alloca i32, align 4
  %3 = alloca i8*, align 8
  %4 = alloca i64, align 8
  store i32 0, i32* %1, align 4
  %5 = call dereferenceable(280) %"class.std::basic_istream"* @_ZNSirsERi(%"class.std::basic_istream"* @_ZSt3cin, i32* dereferenceable(4) @n)
  %6 = load i32, i32* @n, align 4
  store i32 %6, i32* %2, align 4
  %7 = load i32, i32* %2, align 4
  %8 = zext i32 %7 to i64
  %9 = call i8* @llvm.stacksave()
  store i8* %9, i8** %3, align 8
  %10 = alloca i32, i64 %8, align 16
  store i64 %8, i64* %4, align 8
  store i32 0, i32* @i, align 4
  br label %11

11:                                               ; preds = %20, %0
  %12 = load i32, i32* @i, align 4
  %13 = load i32, i32* @n, align 4
  %14 = icmp slt i32 %12, %13
  br i1 %14, label %15, label %23

15:                                               ; preds = %11
  %16 = load i32, i32* @i, align 4
  %17 = sext i32 %16 to i64
  %18 = getelementptr inbounds i32, i32* %10, i64 %17
  %19 = call dereferenceable(280) %"class.std::basic_istream"* @_ZNSirsERi(%"class.std::basic_istream"* @_ZSt3cin, i32* dereferenceable(4) %18)
  br label %20

20:                                               ; preds = %15
  %21 = load i32, i32* @i, align 4
  %22 = add nsw i32 %21, 1
  store i32 %22, i32* @i, align 4
  br label %11

23:                                               ; preds = %11
  store i32* %10, i32** @p, align 8
  %24 = load i32, i32* @n, align 4
  %25 = sext i32 %24 to i64
  %26 = getelementptr inbounds i32, i32* %10, i64 %25
  %27 = getelementptr inbounds i32, i32* %26, i64 -1
  store i32* %27, i32** @q, align 8
  br label %28

28:                                               ; preds = %40, %23
  %29 = load i32*, i32** @p, align 8
  %30 = load i32*, i32** @q, align 8
  %31 = icmp ult i32* %29, %30
  br i1 %31, label %32, label %45

32:                                               ; preds = %28
  %33 = load i32*, i32** @p, align 8
  %34 = load i32, i32* %33, align 4
  store i32 %34, i32* @temp, align 4
  %35 = load i32*, i32** @q, align 8
  %36 = load i32, i32* %35, align 4
  %37 = load i32*, i32** @p, align 8
  store i32 %36, i32* %37, align 4
  %38 = load i32, i32* @temp, align 4
  %39 = load i32*, i32** @q, align 8
  store i32 %38, i32* %39, align 4
  br label %40

40:                                               ; preds = %32
  %41 = load i32*, i32** @p, align 8
  %42 = getelementptr inbounds i32, i32* %41, i32 1
  store i32* %42, i32** @p, align 8
  %43 = load i32*, i32** @q, align 8
  %44 = getelementptr inbounds i32, i32* %43, i32 -1
  store i32* %44, i32** @q, align 8
  br label %28

45:                                               ; preds = %28
  store i32* %10, i32** @p, align 8
  br label %46

46:                                               ; preds = %58, %45
  %47 = load i32*, i32** @p, align 8
  %48 = load i32, i32* @n, align 4
  %49 = sext i32 %48 to i64
  %50 = getelementptr inbounds i32, i32* %10, i64 %49
  %51 = getelementptr inbounds i32, i32* %50, i64 -1
  %52 = icmp ult i32* %47, %51
  br i1 %52, label %53, label %61

53:                                               ; preds = %46
  %54 = load i32*, i32** @p, align 8
  %55 = load i32, i32* %54, align 4
  %56 = call dereferenceable(272) %"class.std::basic_ostream"* @_ZNSolsEi(%"class.std::basic_ostream"* @_ZSt4cout, i32 %55)
  %57 = call dereferenceable(272) %"class.std::basic_ostream"* @_ZStlsISt11char_traitsIcEERSt13basic_ostreamIcT_ES5_c(%"class.std::basic_ostream"* dereferenceable(272) %56, i8 signext 32)
  br label %58

58:                                               ; preds = %53
  %59 = load i32*, i32** @p, align 8
  %60 = getelementptr inbounds i32, i32* %59, i32 1
  store i32* %60, i32** @p, align 8
  br label %46

61:                                               ; preds = %46
  %62 = load i32*, i32** @p, align 8
  %63 = load i32, i32* %62, align 4
  %64 = call dereferenceable(272) %"class.std::basic_ostream"* @_ZNSolsEi(%"class.std::basic_ostream"* @_ZSt4cout, i32 %63)
  %65 = call dereferenceable(272) %"class.std::basic_ostream"* @_ZNSolsEPFRSoS_E(%"class.std::basic_ostream"* %64, %"class.std::basic_ostream"* (%"class.std::basic_ostream"*)* @_ZSt4endlIcSt11char_traitsIcEERSt13basic_ostreamIT_T0_ES6_)
  store i32 0, i32* %1, align 4
  %66 = load i8*, i8** %3, align 8
  call void @llvm.stackrestore(i8* %66)
  %67 = load i32, i32* %1, align 4
  ret i32 %67
}

declare dso_local dereferenceable(280) %"class.std::basic_istream"* @_ZNSirsERi(%"class.std::basic_istream"*, i32* dereferenceable(4)) #1

; Function Attrs: nounwind
declare i8* @llvm.stacksave() #3

declare dso_local dereferenceable(272) %"class.std::basic_ostream"* @_ZStlsISt11char_traitsIcEERSt13basic_ostreamIcT_ES5_c(%"class.std::basic_ostream"* dereferenceable(272), i8 signext) #1

declare dso_local dereferenceable(272) %"class.std::basic_ostream"* @_ZNSolsEi(%"class.std::basic_ostream"*, i32) #1

declare dso_local dereferenceable(272) %"class.std::basic_ostream"* @_ZNSolsEPFRSoS_E(%"class.std::basic_ostream"*, %"class.std::basic_ostream"* (%"class.std::basic_ostream"*)*) #1

declare dso_local dereferenceable(272) %"class.std::basic_ostream"* @_ZSt4endlIcSt11char_traitsIcEERSt13basic_ostreamIT_T0_ES6_(%"class.std::basic_ostream"* dereferenceable(272)) #1

; Function Attrs: nounwind
declare void @llvm.stackrestore(i8*) #3

; Function Attrs: noinline uwtable
define internal void @_GLOBAL__sub_I_2310.cpp() #0 section ".text.startup" {
  call void @__cxx_global_var_init()
  ret void
}


!llvm.module.flags = !{!0}
!llvm.ident = !{!1}

!0 = !{i32 1, !"wchar_size", i32 4}
!1 = !{!"clang version 10.0.0-4ubuntu1 "}
